	.file	"cache.c"
	.section	.rodata
.LC0:
	.string	"%p\t%p\n"
	.text
	.globl	prepare
	.type	prepare, @function
prepare:
.LFB2:
	.cfi_startproc
	pushq	%rbp
	.cfi_def_cfa_offset 16
	.cfi_offset 6, -16
	movq	%rsp, %rbp
	.cfi_def_cfa_register 6
	subq	$32, %rsp
	movq	%rdi, -24(%rbp)
	movl	%esi, -28(%rbp)
	movq	-24(%rbp), %rax
	movq	%rax, %rdi
	call	malloc
	movq	%rax, -8(%rbp)
	cmpq	$0, -8(%rbp)
	jne	.L2
	movl	$0, %eax
	jmp	.L3
.L2:
	movl	-28(%rbp), %eax
	movl	%eax, -12(%rbp)
	jmp	.L4
.L5:
	movl	-12(%rbp), %eax
	subl	-28(%rbp), %eax
	movslq	%eax, %rdx
	movq	-8(%rbp), %rax
	addq	%rdx, %rax
	movl	-12(%rbp), %edx
	movslq	%edx, %rcx
	movq	-8(%rbp), %rdx
	addq	%rcx, %rdx
	movq	%rdx, (%rax)
	movl	-28(%rbp), %eax
	addl	%eax, -12(%rbp)
.L4:
	movl	-12(%rbp), %eax
	cltq
	cmpq	-24(%rbp), %rax
	jb	.L5
	movl	-12(%rbp), %eax
	subl	-28(%rbp), %eax
	movslq	%eax, %rdx
	movq	-8(%rbp), %rax
	leaq	(%rdx,%rax), %rcx
	movq	-8(%rbp), %rax
	movq	%rax, %rdx
	movq	%rcx, %rsi
	movl	$.LC0, %edi
	movl	$0, %eax
	call	printf
	movl	-12(%rbp), %eax
	subl	-28(%rbp), %eax
	movslq	%eax, %rdx
	movq	-8(%rbp), %rax
	addq	%rax, %rdx
	movq	-8(%rbp), %rax
	movq	%rax, (%rdx)
	movq	-8(%rbp), %rax
.L3:
	leave
	.cfi_def_cfa 7, 8
	ret
	.cfi_endproc
.LFE2:
	.size	prepare, .-prepare
	.globl	cooldown
	.type	cooldown, @function
cooldown:
.LFB3:
	.cfi_startproc
	pushq	%rbp
	.cfi_def_cfa_offset 16
	.cfi_offset 6, -16
	movq	%rsp, %rbp
	.cfi_def_cfa_register 6
	subq	$16, %rsp
	movq	%rdi, -8(%rbp)
	cmpq	$0, -8(%rbp)
	je	.L7
	movq	-8(%rbp), %rax
	movq	%rax, %rdi
	call	free
.L7:
	nop
	leave
	.cfi_def_cfa 7, 8
	ret
	.cfi_endproc
.LFE3:
	.size	cooldown, .-cooldown
	.section	.rodata
.LC1:
	.string	"prepare error"
.LC3:
	.string	"colapsed: %ld\t latency: %lf\n"
	.text
	.globl	main
	.type	main, @function
main:
.LFB4:
	.cfi_startproc
	pushq	%rbp
	.cfi_def_cfa_offset 16
	.cfi_offset 6, -16
	movq	%rsp, %rbp
	.cfi_def_cfa_register 6
	addq	$-128, %rsp
	movq	%fs:40, %rax
	movq	%rax, -8(%rbp)
	xorl	%eax, %eax
	movl	$32768, -96(%rbp)
	movl	$32, -92(%rbp)
	movl	$1000000, -88(%rbp)
	movl	-88(%rbp), %eax
	movl	%eax, -104(%rbp)
	movl	-96(%rbp), %eax
	cltq
	movl	-92(%rbp), %edx
	movl	%edx, %esi
	movq	%rax, %rdi
	call	prepare
	movq	%rax, -80(%rbp)
	movq	-80(%rbp), %rax
	testq	%rax, %rax
	jne	.L9
	movl	$.LC1, %edi
	call	puts
	movl	$1, %edi
	call	exit
.L9:
	movl	-92(%rbp), %eax
	imull	$100, %eax, %ecx
	movl	-96(%rbp), %eax
	cltd
	idivl	%ecx
	addl	$1, %eax
	movl	%eax, -84(%rbp)
	leaq	-80(%rbp), %rax
	movq	%rax, -72(%rbp)
	leaq	-48(%rbp), %rax
	movq	%rax, %rsi
	movl	$0, %edi
	call	clock_gettime
	jmp	.L10
.L13:
	movl	$0, -100(%rbp)
	jmp	.L11
.L12:
	movq	-72(%rbp), %rax
	movq	(%rax), %rax
	movq	%rax, -72(%rbp)
	movq	-72(%rbp), %rax
	movq	(%rax), %rax
	movq	%rax, -72(%rbp)
	movq	-72(%rbp), %rax
	movq	(%rax), %rax
	movq	%rax, -72(%rbp)
	movq	-72(%rbp), %rax
	movq	(%rax), %rax
	movq	%rax, -72(%rbp)
	movq	-72(%rbp), %rax
	movq	(%rax), %rax
	movq	%rax, -72(%rbp)
	movq	-72(%rbp), %rax
	movq	(%rax), %rax
	movq	%rax, -72(%rbp)
	movq	-72(%rbp), %rax
	movq	(%rax), %rax
	movq	%rax, -72(%rbp)
	movq	-72(%rbp), %rax
	movq	(%rax), %rax
	movq	%rax, -72(%rbp)
	movq	-72(%rbp), %rax
	movq	(%rax), %rax
	movq	%rax, -72(%rbp)
	movq	-72(%rbp), %rax
	movq	(%rax), %rax
	movq	%rax, -72(%rbp)
	movq	-72(%rbp), %rax
	movq	(%rax), %rax
	movq	%rax, -72(%rbp)
	movq	-72(%rbp), %rax
	movq	(%rax), %rax
	movq	%rax, -72(%rbp)
	movq	-72(%rbp), %rax
	movq	(%rax), %rax
	movq	%rax, -72(%rbp)
	movq	-72(%rbp), %rax
	movq	(%rax), %rax
	movq	%rax, -72(%rbp)
	movq	-72(%rbp), %rax
	movq	(%rax), %rax
	movq	%rax, -72(%rbp)
	movq	-72(%rbp), %rax
	movq	(%rax), %rax
	movq	%rax, -72(%rbp)
	movq	-72(%rbp), %rax
	movq	(%rax), %rax
	movq	%rax, -72(%rbp)
	movq	-72(%rbp), %rax
	movq	(%rax), %rax
	movq	%rax, -72(%rbp)
	movq	-72(%rbp), %rax
	movq	(%rax), %rax
	movq	%rax, -72(%rbp)
	movq	-72(%rbp), %rax
	movq	(%rax), %rax
	movq	%rax, -72(%rbp)
	movq	-72(%rbp), %rax
	movq	(%rax), %rax
	movq	%rax, -72(%rbp)
	movq	-72(%rbp), %rax
	movq	(%rax), %rax
	movq	%rax, -72(%rbp)
	movq	-72(%rbp), %rax
	movq	(%rax), %rax
	movq	%rax, -72(%rbp)
	movq	-72(%rbp), %rax
	movq	(%rax), %rax
	movq	%rax, -72(%rbp)
	movq	-72(%rbp), %rax
	movq	(%rax), %rax
	movq	%rax, -72(%rbp)
	movq	-72(%rbp), %rax
	movq	(%rax), %rax
	movq	%rax, -72(%rbp)
	movq	-72(%rbp), %rax
	movq	(%rax), %rax
	movq	%rax, -72(%rbp)
	movq	-72(%rbp), %rax
	movq	(%rax), %rax
	movq	%rax, -72(%rbp)
	movq	-72(%rbp), %rax
	movq	(%rax), %rax
	movq	%rax, -72(%rbp)
	movq	-72(%rbp), %rax
	movq	(%rax), %rax
	movq	%rax, -72(%rbp)
	movq	-72(%rbp), %rax
	movq	(%rax), %rax
	movq	%rax, -72(%rbp)
	movq	-72(%rbp), %rax
	movq	(%rax), %rax
	movq	%rax, -72(%rbp)
	movq	-72(%rbp), %rax
	movq	(%rax), %rax
	movq	%rax, -72(%rbp)
	movq	-72(%rbp), %rax
	movq	(%rax), %rax
	movq	%rax, -72(%rbp)
	movq	-72(%rbp), %rax
	movq	(%rax), %rax
	movq	%rax, -72(%rbp)
	movq	-72(%rbp), %rax
	movq	(%rax), %rax
	movq	%rax, -72(%rbp)
	movq	-72(%rbp), %rax
	movq	(%rax), %rax
	movq	%rax, -72(%rbp)
	movq	-72(%rbp), %rax
	movq	(%rax), %rax
	movq	%rax, -72(%rbp)
	movq	-72(%rbp), %rax
	movq	(%rax), %rax
	movq	%rax, -72(%rbp)
	movq	-72(%rbp), %rax
	movq	(%rax), %rax
	movq	%rax, -72(%rbp)
	movq	-72(%rbp), %rax
	movq	(%rax), %rax
	movq	%rax, -72(%rbp)
	movq	-72(%rbp), %rax
	movq	(%rax), %rax
	movq	%rax, -72(%rbp)
	movq	-72(%rbp), %rax
	movq	(%rax), %rax
	movq	%rax, -72(%rbp)
	movq	-72(%rbp), %rax
	movq	(%rax), %rax
	movq	%rax, -72(%rbp)
	movq	-72(%rbp), %rax
	movq	(%rax), %rax
	movq	%rax, -72(%rbp)
	movq	-72(%rbp), %rax
	movq	(%rax), %rax
	movq	%rax, -72(%rbp)
	movq	-72(%rbp), %rax
	movq	(%rax), %rax
	movq	%rax, -72(%rbp)
	movq	-72(%rbp), %rax
	movq	(%rax), %rax
	movq	%rax, -72(%rbp)
	movq	-72(%rbp), %rax
	movq	(%rax), %rax
	movq	%rax, -72(%rbp)
	movq	-72(%rbp), %rax
	movq	(%rax), %rax
	movq	%rax, -72(%rbp)
	movq	-72(%rbp), %rax
	movq	(%rax), %rax
	movq	%rax, -72(%rbp)
	movq	-72(%rbp), %rax
	movq	(%rax), %rax
	movq	%rax, -72(%rbp)
	movq	-72(%rbp), %rax
	movq	(%rax), %rax
	movq	%rax, -72(%rbp)
	movq	-72(%rbp), %rax
	movq	(%rax), %rax
	movq	%rax, -72(%rbp)
	movq	-72(%rbp), %rax
	movq	(%rax), %rax
	movq	%rax, -72(%rbp)
	movq	-72(%rbp), %rax
	movq	(%rax), %rax
	movq	%rax, -72(%rbp)
	movq	-72(%rbp), %rax
	movq	(%rax), %rax
	movq	%rax, -72(%rbp)
	movq	-72(%rbp), %rax
	movq	(%rax), %rax
	movq	%rax, -72(%rbp)
	movq	-72(%rbp), %rax
	movq	(%rax), %rax
	movq	%rax, -72(%rbp)
	movq	-72(%rbp), %rax
	movq	(%rax), %rax
	movq	%rax, -72(%rbp)
	movq	-72(%rbp), %rax
	movq	(%rax), %rax
	movq	%rax, -72(%rbp)
	movq	-72(%rbp), %rax
	movq	(%rax), %rax
	movq	%rax, -72(%rbp)
	movq	-72(%rbp), %rax
	movq	(%rax), %rax
	movq	%rax, -72(%rbp)
	movq	-72(%rbp), %rax
	movq	(%rax), %rax
	movq	%rax, -72(%rbp)
	movq	-72(%rbp), %rax
	movq	(%rax), %rax
	movq	%rax, -72(%rbp)
	movq	-72(%rbp), %rax
	movq	(%rax), %rax
	movq	%rax, -72(%rbp)
	movq	-72(%rbp), %rax
	movq	(%rax), %rax
	movq	%rax, -72(%rbp)
	movq	-72(%rbp), %rax
	movq	(%rax), %rax
	movq	%rax, -72(%rbp)
	movq	-72(%rbp), %rax
	movq	(%rax), %rax
	movq	%rax, -72(%rbp)
	movq	-72(%rbp), %rax
	movq	(%rax), %rax
	movq	%rax, -72(%rbp)
	movq	-72(%rbp), %rax
	movq	(%rax), %rax
	movq	%rax, -72(%rbp)
	movq	-72(%rbp), %rax
	movq	(%rax), %rax
	movq	%rax, -72(%rbp)
	movq	-72(%rbp), %rax
	movq	(%rax), %rax
	movq	%rax, -72(%rbp)
	movq	-72(%rbp), %rax
	movq	(%rax), %rax
	movq	%rax, -72(%rbp)
	movq	-72(%rbp), %rax
	movq	(%rax), %rax
	movq	%rax, -72(%rbp)
	movq	-72(%rbp), %rax
	movq	(%rax), %rax
	movq	%rax, -72(%rbp)
	movq	-72(%rbp), %rax
	movq	(%rax), %rax
	movq	%rax, -72(%rbp)
	movq	-72(%rbp), %rax
	movq	(%rax), %rax
	movq	%rax, -72(%rbp)
	movq	-72(%rbp), %rax
	movq	(%rax), %rax
	movq	%rax, -72(%rbp)
	movq	-72(%rbp), %rax
	movq	(%rax), %rax
	movq	%rax, -72(%rbp)
	movq	-72(%rbp), %rax
	movq	(%rax), %rax
	movq	%rax, -72(%rbp)
	movq	-72(%rbp), %rax
	movq	(%rax), %rax
	movq	%rax, -72(%rbp)
	movq	-72(%rbp), %rax
	movq	(%rax), %rax
	movq	%rax, -72(%rbp)
	movq	-72(%rbp), %rax
	movq	(%rax), %rax
	movq	%rax, -72(%rbp)
	movq	-72(%rbp), %rax
	movq	(%rax), %rax
	movq	%rax, -72(%rbp)
	movq	-72(%rbp), %rax
	movq	(%rax), %rax
	movq	%rax, -72(%rbp)
	movq	-72(%rbp), %rax
	movq	(%rax), %rax
	movq	%rax, -72(%rbp)
	movq	-72(%rbp), %rax
	movq	(%rax), %rax
	movq	%rax, -72(%rbp)
	movq	-72(%rbp), %rax
	movq	(%rax), %rax
	movq	%rax, -72(%rbp)
	movq	-72(%rbp), %rax
	movq	(%rax), %rax
	movq	%rax, -72(%rbp)
	movq	-72(%rbp), %rax
	movq	(%rax), %rax
	movq	%rax, -72(%rbp)
	movq	-72(%rbp), %rax
	movq	(%rax), %rax
	movq	%rax, -72(%rbp)
	movq	-72(%rbp), %rax
	movq	(%rax), %rax
	movq	%rax, -72(%rbp)
	movq	-72(%rbp), %rax
	movq	(%rax), %rax
	movq	%rax, -72(%rbp)
	movq	-72(%rbp), %rax
	movq	(%rax), %rax
	movq	%rax, -72(%rbp)
	movq	-72(%rbp), %rax
	movq	(%rax), %rax
	movq	%rax, -72(%rbp)
	movq	-72(%rbp), %rax
	movq	(%rax), %rax
	movq	%rax, -72(%rbp)
	movq	-72(%rbp), %rax
	movq	(%rax), %rax
	movq	%rax, -72(%rbp)
	movq	-72(%rbp), %rax
	movq	(%rax), %rax
	movq	%rax, -72(%rbp)
	movq	-72(%rbp), %rax
	movq	(%rax), %rax
	movq	%rax, -72(%rbp)
	addl	$1, -100(%rbp)
.L11:
	movl	-100(%rbp), %eax
	cmpl	-84(%rbp), %eax
	jl	.L12
.L10:
	movl	-104(%rbp), %eax
	leal	-1(%rax), %edx
	movl	%edx, -104(%rbp)
	testl	%eax, %eax
	jne	.L13
	leaq	-32(%rbp), %rax
	movq	%rax, %rsi
	movl	$0, %edi
	call	clock_gettime
	movq	-32(%rbp), %rdx
	movq	-48(%rbp), %rax
	subq	%rax, %rdx
	movq	%rdx, %rax
	imulq	$1000000000, %rax, %rax
	movq	-24(%rbp), %rcx
	movq	-40(%rbp), %rdx
	subq	%rdx, %rcx
	movq	%rcx, %rdx
	addq	%rdx, %rax
	movq	%rax, -64(%rbp)
	pxor	%xmm0, %xmm0
	cvtsi2sdq	-64(%rbp), %xmm0
	pxor	%xmm1, %xmm1
	cvtsi2sd	-88(%rbp), %xmm1
	divsd	%xmm1, %xmm0
	pxor	%xmm1, %xmm1
	cvtsi2sd	-84(%rbp), %xmm1
	divsd	%xmm1, %xmm0
	movsd	.LC2(%rip), %xmm1
	divsd	%xmm1, %xmm0
	movsd	%xmm0, -56(%rbp)
	movq	-56(%rbp), %rdx
	movq	-64(%rbp), %rax
	movq	%rdx, -120(%rbp)
	movsd	-120(%rbp), %xmm0
	movq	%rax, %rsi
	movl	$.LC3, %edi
	movl	$1, %eax
	call	printf
	movl	$0, %eax
	movq	-8(%rbp), %rsi
	xorq	%fs:40, %rsi
	je	.L15
	call	__stack_chk_fail
.L15:
	leave
	.cfi_def_cfa 7, 8
	ret
	.cfi_endproc
.LFE4:
	.size	main, .-main
	.section	.rodata
	.align 8
.LC2:
	.long	0
	.long	1079574528
	.ident	"GCC: (Ubuntu 5.4.0-6ubuntu1~16.04.2) 5.4.0 20160609"
	.section	.note.GNU-stack,"",@progbits
